target datalayout = "e-m:e-p270:32:32-p271:32:32-p272:64:64-i64:64-i128:128-f80:128-n8:16:32:64-S128"
target triple = "x86_64-pc-linux-gnu"

%struct.ImGuiDataVarInfo = type { i32, i32, i32 }
%struct.ImVec2 = type { float, float }
%struct.ImGuiStyle = type { float, float, %struct.ImVec2, float, float, %struct.ImVec2, %struct.ImVec2, i32, float, float, float, float, %struct.ImVec2, float, float, %struct.ImVec2, %struct.ImVec2, %struct.ImVec2, %struct.ImVec2, float, float, float, float, float, float, float, float, float, float, float, float, float, %struct.ImVec2, i32, %struct.ImVec2, %struct.ImVec2, float, %struct.ImVec2, %struct.ImVec2, %struct.ImVec2, %struct.ImVec2, float, i8, i8, i8, float, float, [56 x %struct.ImVec4], float, float, float, i32, i32 }
%struct.ImVec4 = type { float, float, float, float }
%struct.ImGuiIO = type { i32, i32, %struct.ImVec2, float, float, ptr, ptr, ptr, ptr, float, i8, ptr, %struct.ImVec2, i8, i8, i8, i8, i8, i8, i8, i8, i8, i8, float, float, float, float, float, float, i8, i8, i8, i8, i8, i8, i8, i8, i8, i8, ptr, ptr, ptr, ptr, ptr, i8, i8, i8, i8, i8, i8, i8, float, i32, i32, i32, i32, %struct.ImVec2, ptr, %struct.ImVec2, [5 x i8], float, float, i32, i8, i8, i8, i8, i32, [154 x %struct.ImGuiKeyData], i8, %struct.ImVec2, [5 x %struct.ImVec2], [5 x double], [5 x i8], [5 x i8], [5 x i16], [5 x i16], [5 x i8], [5 x i8], [5 x i8], i8, i8, [5 x float], [5 x float], [5 x float], float, i8, i8, i8, i8, i16, %struct.ImVector }
%struct.ImGuiKeyData = type { i8, float, float, float }
%struct.ImVector = type { i32, i32, ptr }
%struct.ImGuiContext = type { i8, i8, %struct.ImGuiIO, %struct.ImGuiPlatformIO, %struct.ImGuiStyle, ptr, float, float, float, float, %struct.ImDrawListSharedData, double, i32, i32, i32, i8, i8, i8, i8, i8, ptr, [16 x i8], %struct.ImVector.1, %struct.ImVector.1, i32, i32, %struct.ImVector.2, %struct.ImVector.2, %struct.ImVector.2, %struct.ImVector.3, %struct.ImGuiStorage, i32, %struct.ImVec2, i32, ptr, ptr, ptr, ptr, ptr, ptr, %struct.ImVec2, i32, i32, float, %struct.ImVec2, %struct.ImVec2, i32, i32, i32, i32, i32, float, float, i8, i8, i8, i32, i32, float, i8, i8, i8, i8, i8, i8, i8, i8, %struct.ImVec2, ptr, i32, i32, i8, i8, ptr, i32, float, double, double, double, %struct.ImBitArray, [154 x %struct.ImGuiKeyOwnerData], %struct.ImGuiKeyRoutingTable, i32, i8, i32, i32, i32, i32, %struct.ImGuiNextItemData, %struct.ImGuiLastItemData, %struct.ImGuiNextWindowData, i8, i32, %struct.ImVector.6, %struct.ImVector.7, %struct.ImVector.8, %struct.ImVector.9, %struct.ImVector.10, %struct.ImVector.11, %struct.ImVector.12, %struct.ImVector.12, %struct.ImVector.13, %struct.ImVector.14, ptr, i32, i32, i32, i32, i32, i32, i32, %struct.ImVector.9, i32, float, i32, i32, i32, i64, i8, i8, i8, i8, i8, i8, i8, %struct.ImGuiNavItemData, i8, i8, i8, i32, i32, i32, i32, i32, i32, %struct.ImRect, %struct.ImRect, i32, i32, i32, %struct.ImGuiNavItemData, %struct.ImGuiNavItemData, %struct.ImGuiNavItemData, %struct.ImGuiNavItemData, i32, i32, i32, i32, i8, i8, i32, i32, ptr, ptr, ptr, float, float, i8, i32, %struct.ImVec2, %struct.ImVec2, float, i8, i8, i8, i32, i32, i32, [4 x i8], %struct.ImGuiPayload, %struct.ImRect, %struct.ImRect, i32, i32, float, i32, i32, i32, i32, %struct.ImVector.15, [16 x i8], i32, %struct.ImVector.16, ptr, i32, i32, %struct.ImVector.17, %struct.ImPool, %struct.ImVector.19, %struct.ImVector.20, ptr, %struct.ImPool.21, %struct.ImVector.23, %struct.ImVector.24, %struct.ImGuiBoxSelectState, ptr, i32, %struct.ImVector.25, %struct.ImPool.26, i32, i32, float, float, i32, i32, i32, float, %struct.ImVec2, %struct.ImGuiInputTextState, %struct.ImGuiInputTextDeactivatedState, %struct.ImFont, i32, %struct.ImGuiDataTypeStorage, i32, i32, i32, i32, i32, float, float, i32, %struct.ImVec4, %struct.ImGuiComboPreviewData, %struct.ImRect, i8, i16, float, float, float, i8, i8, float, float, float, i16, i16, i16, ptr, %struct.ImVector.28, %struct.ImVector.30, %struct.ImGuiTypingSelectState, %struct.ImGuiPlatformImeData, %struct.ImGuiPlatformImeData, i8, float, %struct.ImGuiTextBuffer, %struct.ImVector.31, %struct.ImChunkStream, %struct.ImChunkStream.32, %struct.ImVector.33, i32, [10 x ptr], i8, i32, ptr, %struct.ImGuiTextBuffer, ptr, ptr, float, i8, i32, i32, i32, ptr, ptr, %struct.ImVec2, i8, i32, %struct.ImGuiErrorRecoveryState, ptr, i32, i32, %struct.ImGuiTextBuffer, %struct.ImGuiTextIndex, i32, i32, i8, i8, i8, i32, i8, i8, i8, i32, float, %struct.ImVec4, %struct.ImGuiMetricsConfig, %struct.ImGuiIDStackTool, %struct.ImGuiDebugAllocInfo, [60 x float], i32, i32, float, i32, i32, i32, %struct.ImVector.28, [64 x i8] }
%struct.ImGuiPlatformIO = type <{ ptr, ptr, ptr, ptr, ptr, ptr, ptr, i16, [6 x i8] }>
%struct.ImDrawListSharedData = type { %struct.ImVec2, ptr, float, float, float, float, %struct.ImVec4, i32, %struct.ImVector.0, [48 x %struct.ImVec2], float, [64 x i8], ptr }
%struct.ImVector.0 = type { i32, i32, ptr }
%struct.ImVector.1 = type { i32, i32, ptr }
%struct.ImVector.2 = type { i32, i32, ptr }
%struct.ImVector.3 = type { i32, i32, ptr }
%struct.ImGuiStorage = type { %struct.ImVector.4 }
%struct.ImVector.4 = type { i32, i32, ptr }
%struct.ImBitArray = type { [5 x i32] }
%struct.ImGuiKeyOwnerData = type <{ i32, i32, i8, i8, [2 x i8] }>
%struct.ImGuiKeyRoutingTable = type { [154 x i16], %struct.ImVector.5, %struct.ImVector.5 }
%struct.ImVector.5 = type { i32, i32, ptr }
%struct.ImGuiNextItemData = type <{ i32, i32, i32, [4 x i8], i64, float, i32, i32, i8, i8, %struct.ImGuiDataTypeStorage, [2 x i8], i32, [4 x i8] }>
%struct.ImGuiLastItemData = type { i32, i32, i32, %struct.ImRect, %struct.ImRect, %struct.ImRect, %struct.ImRect, i32 }
%struct.ImGuiNextWindowData = type { i32, i32, i32, i32, %struct.ImVec2, %struct.ImVec2, %struct.ImVec2, %struct.ImVec2, %struct.ImVec2, i32, i8, %struct.ImRect, ptr, ptr, float, %struct.ImVec2, i32 }
%struct.ImVector.6 = type { i32, i32, ptr }
%struct.ImVector.7 = type { i32, i32, ptr }
%struct.ImVector.8 = type { i32, i32, ptr }
%struct.ImVector.10 = type { i32, i32, ptr }
%struct.ImVector.11 = type { i32, i32, ptr }
%struct.ImVector.12 = type { i32, i32, ptr }
%struct.ImVector.13 = type { i32, i32, ptr }
%struct.ImVector.14 = type { i32, i32, ptr }
%struct.ImVector.9 = type { i32, i32, ptr }
%struct.ImGuiNavItemData = type { ptr, i32, i32, %struct.ImRect, i32, float, float, float, i64 }
%struct.ImGuiPayload = type <{ ptr, i32, i32, i32, i32, [33 x i8], i8, i8, [5 x i8] }>
%struct.ImVector.15 = type { i32, i32, ptr }
%struct.ImVector.16 = type { i32, i32, ptr }
%struct.ImVector.17 = type { i32, i32, ptr }
%struct.ImPool = type { %struct.ImVector.18, %struct.ImGuiStorage, i32, i32 }
%struct.ImVector.18 = type { i32, i32, ptr }
%struct.ImVector.19 = type { i32, i32, ptr }
%struct.ImVector.20 = type { i32, i32, ptr }
%struct.ImPool.21 = type { %struct.ImVector.22, %struct.ImGuiStorage, i32, i32 }
%struct.ImVector.22 = type { i32, i32, ptr }
%struct.ImVector.23 = type { i32, i32, ptr }
%struct.ImVector.24 = type { i32, i32, ptr }
%struct.ImGuiBoxSelectState = type <{ i32, i8, i8, i8, i8, i8, i16, i8, %struct.ImVec2, %struct.ImVec2, %struct.ImVec2, [4 x i8], ptr, i8, [3 x i8], %struct.ImRect, %struct.ImRect, %struct.ImRect, [4 x i8] }>
%struct.ImVector.25 = type { i32, i32, ptr }
%struct.ImPool.26 = type { %struct.ImVector.27, %struct.ImGuiStorage, i32, i32 }
%struct.ImVector.27 = type { i32, i32, ptr }
%struct.ImGuiInputTextState = type <{ ptr, ptr, i32, i32, %struct.ImVector.28, %struct.ImVector.28, %struct.ImVector.28, i32, %struct.ImVec2, float, i8, i8, i8, i8, i32, i8, [3 x i8], i32, i32, [4 x i8] }>
%struct.ImGuiInputTextDeactivatedState = type { i32, %struct.ImVector.28 }
%struct.ImFont = type <{ %struct.ImVector.19, float, float, %struct.ImVector, %struct.ImVector.29, ptr, ptr, ptr, i16, i16, i16, i16, float, float, i8, [3 x i8], float, float, float, i32, [2 x i8], [2 x i8] }>
%struct.ImVector.29 = type { i32, i32, ptr }
%struct.ImGuiDataTypeStorage = type { [8 x i8] }
%struct.ImGuiComboPreviewData = type { %struct.ImRect, %struct.ImVec2, %struct.ImVec2, %struct.ImVec2, float, i32 }
%struct.ImRect = type { %struct.ImVec2, %struct.ImVec2 }
%struct.ImVector.30 = type { i32, i32, ptr }
%struct.ImGuiTypingSelectState = type <{ %struct.ImGuiTypingSelectRequest, [64 x i8], i32, i32, float, i8, [3 x i8] }>
%struct.ImGuiTypingSelectRequest = type { i32, i32, ptr, i8, i8, i8 }
%struct.ImGuiPlatformImeData = type { i8, %struct.ImVec2, float }
%struct.ImVector.31 = type { i32, i32, ptr }
%struct.ImChunkStream = type { %struct.ImVector.28 }
%struct.ImChunkStream.32 = type { %struct.ImVector.28 }
%struct.ImVector.33 = type { i32, i32, ptr }
%struct.ImGuiErrorRecoveryState = type { i16, i16, i16, i16, i16, i16, i16, i16, i16, i16, i16 }
%struct.ImGuiTextBuffer = type { %struct.ImVector.28 }
%struct.ImGuiTextIndex = type <{ %struct.ImVector.10, i32, [4 x i8] }>
%struct.ImGuiMetricsConfig = type { i8, i8, i8, i8, i8, i8, i8, i8, i8, i32, i32, i32, i32 }
%struct.ImGuiIDStackTool = type { i32, i32, i32, %struct.ImVector.34, i8, float }
%struct.ImVector.34 = type { i32, i32, ptr }
%struct.ImGuiDebugAllocInfo = type { i32, i32, i16, [6 x %struct.ImGuiDebugAllocEntry] }
%struct.ImGuiDebugAllocEntry = type { i32, i16, i16 }
%struct.ImVector.28 = type { i32, i32, ptr }
%struct.ImGuiStyleMod = type { i32, %union.anon.47 }
%union.anon.47 = type { [2 x i32] }

@GImGui = dso_local global ptr null, align 8
@.str.13 = private unnamed_addr constant [38 x i8] c"Calling PopStyleVar() too many times!\00", align 1

; Function Attrs: inlinehint mustprogress nounwind uwtable
define linkonce_odr dso_local void @_ZN8ImVectorI13ImGuiStyleModE8pop_backEv(ptr noundef nonnull align 8 dereferenceable(16) %0) #7 comdat align 2 {
  %2 = alloca ptr, align 8
  store ptr %0, ptr %2, align 8, !tbaa !521
  %3 = load ptr, ptr %2, align 8
  %4 = getelementptr inbounds nuw %struct.ImVector.7, ptr %3, i32 0, i32 0
  %5 = load i32, ptr %4, align 8, !tbaa !524
  %6 = add nsw i32 %5, -1
  store i32 %6, ptr %4, align 8, !tbaa !524
  ret void
}

; Function Attrs: mustprogress nounwind uwtable
define linkonce_odr dso_local noundef ptr @_ZNK16ImGuiDataVarInfo9GetVarPtrEPv(ptr noundef nonnull align 4 dereferenceable(12) %0, ptr noundef %1) #1 comdat align 2 {
  %3 = alloca ptr, align 8
  %4 = alloca ptr, align 8
  store ptr %0, ptr %3, align 8, !tbaa !515
  store ptr %1, ptr %4, align 8, !tbaa !293
  %5 = load ptr, ptr %3, align 8
  %6 = load ptr, ptr %4, align 8, !tbaa !293
  %7 = getelementptr inbounds nuw %struct.ImGuiDataVarInfo, ptr %5, i32 0, i32 2
  %8 = load i32, ptr %7, align 4, !tbaa !520
  %9 = zext i32 %8 to i64
  %10 = getelementptr inbounds nuw i8, ptr %6, i64 %9
  ret ptr %10
}

; Function Attrs: mustprogress nounwind uwtable
define dso_local noundef ptr @_ZN5ImGui15GetStyleVarInfoEi(i32 noundef %0) #1 {
  %2 = alloca i32, align 4
  store i32 %0, ptr %2, align 4, !tbaa !117
  %3 = load i32, ptr %2, align 4, !tbaa !117
  %4 = sext i32 %3 to i64
  %5 = getelementptr inbounds [33 x %struct.ImGuiDataVarInfo], ptr @_ZL13GStyleVarInfo, i64 0, i64 %4
  ret ptr %5
}

; Function Attrs: inlinehint mustprogress nounwind uwtable
define linkonce_odr dso_local noundef nonnull align 4 dereferenceable(12) ptr @_ZN8ImVectorI13ImGuiStyleModE4backEv(ptr noundef nonnull align 8 dereferenceable(16) %0) #7 comdat align 2 {
  %2 = alloca ptr, align 8
  store ptr %0, ptr %2, align 8, !tbaa !521
  %3 = load ptr, ptr %2, align 8
  %4 = getelementptr inbounds nuw %struct.ImVector.7, ptr %3, i32 0, i32 2
  %5 = load ptr, ptr %4, align 8, !tbaa !526
  %6 = getelementptr inbounds nuw %struct.ImVector.7, ptr %3, i32 0, i32 0
  %7 = load i32, ptr %6, align 8, !tbaa !524
  %8 = sub nsw i32 %7, 1
  %9 = sext i32 %8 to i64
  %10 = getelementptr inbounds %struct.ImGuiStyleMod, ptr %5, i64 %9
  ret ptr %10
}

; Function Attrs: mustprogress uwtable
define dso_local void @_ZN5ImGui11PopStyleVarEi(i32 noundef %0) #0 {
  %2 = alloca i32, align 4
  %3 = alloca ptr, align 8
  %4 = alloca ptr, align 8
  %5 = alloca ptr, align 8
  %6 = alloca ptr, align 8
  store i32 %0, ptr %2, align 4, !tbaa !117
  call void @llvm.lifetime.start.p0(i64 8, ptr %3) #16
  %7 = load ptr, ptr @GImGui, align 8, !tbaa !133
  store ptr %7, ptr %3, align 8, !tbaa !133
  %8 = load ptr, ptr %3, align 8, !tbaa !133
  %9 = getelementptr inbounds nuw %struct.ImGuiContext, ptr %8, i32 0, i32 94
  %10 = getelementptr inbounds nuw %struct.ImVector.7, ptr %9, i32 0, i32 0
  %11 = load i32, ptr %10, align 8, !tbaa !529
  %12 = load i32, ptr %2, align 4, !tbaa !117
  %13 = icmp slt i32 %11, %12
  br i1 %13, label %14, label %25

14:                                               ; preds = %1
  br label %15

15:                                               ; preds = %14
  %16 = call noundef zeroext i1 @_ZN5ImGui8ErrorLogEPKc(ptr noundef @.str.13)
  br i1 %16, label %17, label %18

17:                                               ; preds = %15
  br label %18

18:                                               ; preds = %17, %15
  br label %19

19:                                               ; preds = %18
  br label %20

20:                                               ; preds = %19
  %21 = load ptr, ptr %3, align 8, !tbaa !133
  %22 = getelementptr inbounds nuw %struct.ImGuiContext, ptr %21, i32 0, i32 94
  %23 = getelementptr inbounds nuw %struct.ImVector.7, ptr %22, i32 0, i32 0
  %24 = load i32, ptr %23, align 8, !tbaa !529
  store i32 %24, ptr %2, align 4, !tbaa !117
  br label %25

25:                                               ; preds = %20, %1
  br label %26

26:                                               ; preds = %81, %25
  %27 = load i32, ptr %2, align 4, !tbaa !117
  %28 = icmp sgt i32 %27, 0
  br i1 %28, label %29, label %86

29:                                               ; preds = %26
  call void @llvm.lifetime.start.p0(i64 8, ptr %4) #16
  %30 = load ptr, ptr %3, align 8, !tbaa !133
  %31 = getelementptr inbounds nuw %struct.ImGuiContext, ptr %30, i32 0, i32 94
  %32 = call noundef nonnull align 4 dereferenceable(12) ptr @_ZN8ImVectorI13ImGuiStyleModE4backEv(ptr noundef nonnull align 8 dereferenceable(16) %31)
  store ptr %32, ptr %4, align 8, !tbaa !523
  call void @llvm.lifetime.start.p0(i64 8, ptr %5) #16
  %33 = load ptr, ptr %4, align 8, !tbaa !523
  %34 = getelementptr inbounds nuw %struct.ImGuiStyleMod, ptr %33, i32 0, i32 0
  %35 = load i32, ptr %34, align 4, !tbaa !527
  %36 = call noundef ptr @_ZN5ImGui15GetStyleVarInfoEi(i32 noundef %35)
  store ptr %36, ptr %5, align 8, !tbaa !515
  call void @llvm.lifetime.start.p0(i64 8, ptr %6) #16
  %37 = load ptr, ptr %5, align 8, !tbaa !515
  %38 = load ptr, ptr %3, align 8, !tbaa !133
  %39 = getelementptr inbounds nuw %struct.ImGuiContext, ptr %38, i32 0, i32 4
  %40 = call noundef ptr @_ZNK16ImGuiDataVarInfo9GetVarPtrEPv(ptr noundef nonnull align 4 dereferenceable(12) %37, ptr noundef %39)
  store ptr %40, ptr %6, align 8, !tbaa !293
  %41 = load ptr, ptr %5, align 8, !tbaa !515
  %42 = getelementptr inbounds nuw %struct.ImGuiDataVarInfo, ptr %41, i32 0, i32 0
  %43 = load i32, ptr %42, align 4, !tbaa !517
  %44 = icmp eq i32 %43, 8
  br i1 %44, label %45, label %57

45:                                               ; preds = %29
  %46 = load ptr, ptr %5, align 8, !tbaa !515
  %47 = getelementptr inbounds nuw %struct.ImGuiDataVarInfo, ptr %46, i32 0, i32 1
  %48 = load i32, ptr %47, align 4, !tbaa !519
  %49 = icmp eq i32 %48, 1
  br i1 %49, label %50, label %57

50:                                               ; preds = %45
  %51 = load ptr, ptr %4, align 8, !tbaa !523
  %52 = getelementptr inbounds nuw %struct.ImGuiStyleMod, ptr %51, i32 0, i32 1
  %53 = getelementptr inbounds [2 x float], ptr %52, i64 0, i64 0
  %54 = load float, ptr %53, align 4, !tbaa !245
  %55 = load ptr, ptr %6, align 8, !tbaa !293
  %56 = getelementptr inbounds float, ptr %55, i64 0
  store float %54, ptr %56, align 4, !tbaa !18
  br label %81

57:                                               ; preds = %45, %29
  %58 = load ptr, ptr %5, align 8, !tbaa !515
  %59 = getelementptr inbounds nuw %struct.ImGuiDataVarInfo, ptr %58, i32 0, i32 0
  %60 = load i32, ptr %59, align 4, !tbaa !517
  %61 = icmp eq i32 %60, 8
  br i1 %61, label %62, label %80

62:                                               ; preds = %57
  %63 = load ptr, ptr %5, align 8, !tbaa !515
  %64 = getelementptr inbounds nuw %struct.ImGuiDataVarInfo, ptr %63, i32 0, i32 1
  %65 = load i32, ptr %64, align 4, !tbaa !519
  %66 = icmp eq i32 %65, 2
  br i1 %66, label %67, label %80

67:                                               ; preds = %62
  %68 = load ptr, ptr %4, align 8, !tbaa !523
  %69 = getelementptr inbounds nuw %struct.ImGuiStyleMod, ptr %68, i32 0, i32 1
  %70 = getelementptr inbounds [2 x float], ptr %69, i64 0, i64 0
  %71 = load float, ptr %70, align 4, !tbaa !245
  %72 = load ptr, ptr %6, align 8, !tbaa !293
  %73 = getelementptr inbounds float, ptr %72, i64 0
  store float %71, ptr %73, align 4, !tbaa !18
  %74 = load ptr, ptr %4, align 8, !tbaa !523
  %75 = getelementptr inbounds nuw %struct.ImGuiStyleMod, ptr %74, i32 0, i32 1
  %76 = getelementptr inbounds [2 x float], ptr %75, i64 0, i64 1
  %77 = load float, ptr %76, align 4, !tbaa !245
  %78 = load ptr, ptr %6, align 8, !tbaa !293
  %79 = getelementptr inbounds float, ptr %78, i64 1
  store float %77, ptr %79, align 4, !tbaa !18
  br label %80

80:                                               ; preds = %67, %62, %57
  br label %81

81:                                               ; preds = %80, %50
  %82 = load ptr, ptr %3, align 8, !tbaa !133
  %83 = getelementptr inbounds nuw %struct.ImGuiContext, ptr %82, i32 0, i32 94
  call void @_ZN8ImVectorI13ImGuiStyleModE8pop_backEv(ptr noundef nonnull align 8 dereferenceable(16) %83)
  %84 = load i32, ptr %2, align 4, !tbaa !117
  %85 = add nsw i32 %84, -1
  store i32 %85, ptr %2, align 4, !tbaa !117
  call void @llvm.lifetime.end.p0(i64 8, ptr %6) #16
  call void @llvm.lifetime.end.p0(i64 8, ptr %5) #16
  call void @llvm.lifetime.end.p0(i64 8, ptr %4) #16
  br label %26, !llvm.loop !530

86:                                               ; preds = %26
  call void @llvm.lifetime.end.p0(i64 8, ptr %3) #16
  ret void
}