; Function Attrs: mustprogress uwtable
define dso_local void @_ZN5ImGui11PopStyleVarEi(i32 noundef %0) local_unnamed_addr #0 {
  %2 = load ptr, ptr @GImGui, align 8, !tbaa !211
  %3 = getelementptr inbounds nuw i8, ptr %2, i64 7648
  %4 = load i32, ptr %3, align 8, !tbaa !444
  %5 = icmp slt i32 %4, %0
  br i1 %5, label %6, label %9

6:                                                ; preds = %1
  %7 = tail call noundef zeroext i1 @_ZN5ImGui8ErrorLogEPKc(ptr noundef nonnull @.str.13)
  %8 = load i32, ptr %3, align 8, !tbaa !444
  br label %9

9:                                                ; preds = %6, %1
  %.promoted = phi i32 [ %8, %6 ], [ %4, %1 ]
  %.0 = phi i32 [ %8, %6 ], [ %0, %1 ]
  %10 = icmp sgt i32 %.0, 0
  br i1 %10, label %.lr.ph, label %._crit_edge

.lr.ph:                                           ; preds = %9
  %11 = getelementptr inbounds nuw i8, ptr %2, i64 7656
  %12 = load ptr, ptr %11, align 8, !tbaa !443
  %13 = getelementptr inbounds nuw i8, ptr %2, i64 3016
  %14 = sext i32 %.promoted to i64
  br label %15

15:                                               ; preds = %.lr.ph, %36
  %indvars.iv = phi i64 [ %14, %.lr.ph ], [ %indvars.iv.next, %36 ]
  %.120 = phi i32 [ %.0, %.lr.ph ], [ %38, %36 ]
  %16 = getelementptr %struct.ImGuiStyleMod, ptr %12, i64 %indvars.iv
  %17 = getelementptr i8, ptr %16, i64 -12
  %18 = load i32, ptr %17, align 4, !tbaa !439
  %19 = sext i32 %18 to i64
  %20 = getelementptr inbounds [33 x %struct.ImGuiDataVarInfo], ptr @_ZL13GStyleVarInfo, i64 0, i64 %19
  %21 = getelementptr inbounds nuw i8, ptr %20, i64 8
  %22 = load i32, ptr %21, align 4, !tbaa !438
  %23 = zext i32 %22 to i64
  %24 = getelementptr inbounds nuw i8, ptr %13, i64 %23
  %25 = getelementptr inbounds nuw i8, ptr %20, i64 4
  %26 = load i32, ptr %25, align 4, !tbaa !436
  switch i32 %26, label %36 [
    i32 1, label %27
    i32 2, label %30
  ]

27:                                               ; preds = %15
  %28 = getelementptr i8, ptr %16, i64 -8
  %29 = load float, ptr %28, align 4, !tbaa !206
  store float %29, ptr %24, align 4, !tbaa !81
  br label %36

30:                                               ; preds = %15
  %31 = getelementptr i8, ptr %16, i64 -8
  %32 = load float, ptr %31, align 4, !tbaa !206
  store float %32, ptr %24, align 4, !tbaa !81
  %33 = getelementptr i8, ptr %16, i64 -4
  %34 = load float, ptr %33, align 4, !tbaa !206
  %35 = getelementptr inbounds nuw i8, ptr %24, i64 4
  store float %34, ptr %35, align 4, !tbaa !81
  br label %36

36:                                               ; preds = %15, %30, %27
  %indvars.iv.next = add nsw i64 %indvars.iv, -1
  %37 = trunc nsw i64 %indvars.iv.next to i32
  store i32 %37, ptr %3, align 8, !tbaa !441
  %38 = add nsw i32 %.120, -1
  %39 = icmp sgt i32 %.120, 1
  br i1 %39, label %15, label %._crit_edge, !llvm.loop !445

._crit_edge:                                      ; preds = %36, %9
  ret void
}